target datalayout = "e-m:e-p270:32:32-p271:32:32-p272:64:64-i64:64-i128:128-f80:128-n8:16:32:64-S128"
target triple = "x86_64-pc-linux-gnu"

%struct.PACKET = type { ptr, i64 }
%struct.quic_test_case.0 = type { [16 x i8], i64, i64, i32 }

@.str.25 = private unnamed_addr constant [29 x i8] c"../openssl/test/packettest.c\00", align 1
@.str.131 = private unnamed_addr constant [107 x i8] c"PACKET_buf_init(&pkt, cases[i].buf, cases[i].fail ? sizeof(cases[i].buf) : cases[i].enclen + cases[i].len)\00", align 1
@.str.132 = private unnamed_addr constant [47 x i8] c"PACKET_get_quic_length_prefixed(&pkt, &subpkt)\00", align 1
@.str.133 = private unnamed_addr constant [15 x i8] c"!cases[i].fail\00", align 1
@.str.134 = private unnamed_addr constant [9 x i8] c"pkt.curr\00", align 1
@.str.135 = private unnamed_addr constant [13 x i8] c"cases[i].buf\00", align 1
@.str.136 = private unnamed_addr constant [12 x i8] c"subpkt.curr\00", align 1
@.str.137 = private unnamed_addr constant [31 x i8] c"cases[i].buf + cases[i].enclen\00", align 1
@.str.138 = private unnamed_addr constant [17 x i8] c"subpkt.remaining\00", align 1
@.str.139 = private unnamed_addr constant [13 x i8] c"cases[i].len\00", align 1

; Function Attrs: inlinehint nounwind uwtable
define internal i32 @PACKET_peek_bytes(ptr noundef %0, ptr noundef %1, i64 noundef %2) #4 {
  %4 = alloca i32, align 4
  %5 = alloca ptr, align 8
  %6 = alloca ptr, align 8
  %7 = alloca i64, align 8
  store ptr %0, ptr %5, align 8, !tbaa !33
  store ptr %1, ptr %6, align 8, !tbaa !38
  store i64 %2, ptr %7, align 8, !tbaa !11
  %8 = load ptr, ptr %5, align 8, !tbaa !33
  %9 = call i64 @PACKET_remaining(ptr noundef %8)
  %10 = load i64, ptr %7, align 8, !tbaa !11
  %11 = icmp ult i64 %9, %10
  br i1 %11, label %12, label %13

12:                                               ; preds = %3
  store i32 0, ptr %4, align 4
  br label %18

13:                                               ; preds = %3
  %14 = load ptr, ptr %5, align 8, !tbaa !33
  %15 = getelementptr inbounds nuw %struct.PACKET, ptr %14, i32 0, i32 0
  %16 = load ptr, ptr %15, align 8, !tbaa !29
  %17 = load ptr, ptr %6, align 8, !tbaa !38
  store ptr %16, ptr %17, align 8, !tbaa !13
  store i32 1, ptr %4, align 4
  br label %18

18:                                               ; preds = %13, %12
  %19 = load i32, ptr %4, align 4
  ret i32 %19
}

; Function Attrs: inlinehint nounwind uwtable
define internal void @packet_forward(ptr noundef %0, i64 noundef %1) #4 {
  %3 = alloca ptr, align 8
  %4 = alloca i64, align 8
  store ptr %0, ptr %3, align 8, !tbaa !33
  store i64 %1, ptr %4, align 8, !tbaa !11
  %5 = load i64, ptr %4, align 8, !tbaa !11
  %6 = load ptr, ptr %3, align 8, !tbaa !33
  %7 = getelementptr inbounds nuw %struct.PACKET, ptr %6, i32 0, i32 0
  %8 = load ptr, ptr %7, align 8, !tbaa !29
  %9 = getelementptr inbounds nuw i8, ptr %8, i64 %5
  store ptr %9, ptr %7, align 8, !tbaa !29
  %10 = load i64, ptr %4, align 8, !tbaa !11
  %11 = load ptr, ptr %3, align 8, !tbaa !33
  %12 = getelementptr inbounds nuw %struct.PACKET, ptr %11, i32 0, i32 1
  %13 = load i64, ptr %12, align 8, !tbaa !31
  %14 = sub i64 %13, %10
  store i64 %14, ptr %12, align 8, !tbaa !31
  ret void
}

; Function Attrs: inlinehint nounwind uwtable
define internal i64 @ossl_quic_vlint_decode_len(i8 noundef zeroext %0) #4 {
  %2 = alloca i8, align 1
  store i8 %0, ptr %2, align 1, !tbaa !8
  %3 = load i8, ptr %2, align 1, !tbaa !8
  %4 = zext i8 %3 to i32
  %5 = and i32 %4, 192
  %6 = ashr i32 %5, 6
  %7 = shl i32 1, %6
  %8 = zext i32 %7 to i64
  ret i64 %8
}

; Function Attrs: inlinehint nounwind uwtable
define internal i64 @PACKET_remaining(ptr noundef %0) #4 {
  %2 = alloca ptr, align 8
  store ptr %0, ptr %2, align 8, !tbaa !33
  %3 = load ptr, ptr %2, align 8, !tbaa !33
  %4 = getelementptr inbounds nuw %struct.PACKET, ptr %3, i32 0, i32 1
  %5 = load i64, ptr %4, align 8, !tbaa !31
  ret i64 %5
}

; Function Attrs: inlinehint nounwind uwtable
define internal i32 @PACKET_get_bytes(ptr noundef %0, ptr noundef %1, i64 noundef %2) #4 {
  %4 = alloca i32, align 4
  %5 = alloca ptr, align 8
  %6 = alloca ptr, align 8
  %7 = alloca i64, align 8
  store ptr %0, ptr %5, align 8, !tbaa !33
  store ptr %1, ptr %6, align 8, !tbaa !38
  store i64 %2, ptr %7, align 8, !tbaa !11
  %8 = load ptr, ptr %5, align 8, !tbaa !33
  %9 = load ptr, ptr %6, align 8, !tbaa !38
  %10 = load i64, ptr %7, align 8, !tbaa !11
  %11 = call i32 @PACKET_peek_bytes(ptr noundef %8, ptr noundef %9, i64 noundef %10)
  %12 = icmp ne i32 %11, 0
  br i1 %12, label %14, label %13

13:                                               ; preds = %3
  store i32 0, ptr %4, align 4
  br label %17

14:                                               ; preds = %3
  %15 = load ptr, ptr %5, align 8, !tbaa !33
  %16 = load i64, ptr %7, align 8, !tbaa !11
  call void @packet_forward(ptr noundef %15, i64 noundef %16)
  store i32 1, ptr %4, align 4
  br label %17

17:                                               ; preds = %14, %13
  %18 = load i32, ptr %4, align 4
  ret i32 %18
}

; Function Attrs: inlinehint nounwind uwtable
define internal i32 @PACKET_get_quic_vlint(ptr noundef %0, ptr noundef %1) #4 {
  %3 = alloca i32, align 4
  %4 = alloca ptr, align 8
  %5 = alloca ptr, align 8
  %6 = alloca i64, align 8
  %7 = alloca i32, align 4
  store ptr %0, ptr %4, align 8, !tbaa !33
  store ptr %1, ptr %5, align 8, !tbaa !36
  call void @llvm.lifetime.start.p0(i64 8, ptr %6) #7
  %8 = load ptr, ptr %4, align 8, !tbaa !33
  %9 = call i64 @PACKET_remaining(ptr noundef %8)
  %10 = icmp ult i64 %9, 1
  br i1 %10, label %11, label %12

11:                                               ; preds = %2
  store i32 0, ptr %3, align 4
  store i32 1, ptr %7, align 4
  br label %31

12:                                               ; preds = %2
  %13 = load ptr, ptr %4, align 8, !tbaa !33
  %14 = getelementptr inbounds nuw %struct.PACKET, ptr %13, i32 0, i32 0
  %15 = load ptr, ptr %14, align 8, !tbaa !29
  %16 = load i8, ptr %15, align 1, !tbaa !8
  %17 = call i64 @ossl_quic_vlint_decode_len(i8 noundef zeroext %16)
  store i64 %17, ptr %6, align 8, !tbaa !11
  %18 = load ptr, ptr %4, align 8, !tbaa !33
  %19 = call i64 @PACKET_remaining(ptr noundef %18)
  %20 = load i64, ptr %6, align 8, !tbaa !11
  %21 = icmp ult i64 %19, %20
  br i1 %21, label %22, label %23

22:                                               ; preds = %12
  store i32 0, ptr %3, align 4
  store i32 1, ptr %7, align 4
  br label %31

23:                                               ; preds = %12
  %24 = load ptr, ptr %4, align 8, !tbaa !33
  %25 = getelementptr inbounds nuw %struct.PACKET, ptr %24, i32 0, i32 0
  %26 = load ptr, ptr %25, align 8, !tbaa !29
  %27 = call i64 @ossl_quic_vlint_decode_unchecked(ptr noundef %26)
  %28 = load ptr, ptr %5, align 8, !tbaa !36
  store i64 %27, ptr %28, align 8, !tbaa !11
  %29 = load ptr, ptr %4, align 8, !tbaa !33
  %30 = load i64, ptr %6, align 8, !tbaa !11
  call void @packet_forward(ptr noundef %29, i64 noundef %30)
  store i32 1, ptr %3, align 4
  store i32 1, ptr %7, align 4
  br label %31

31:                                               ; preds = %23, %22, %11
  call void @llvm.lifetime.end.p0(i64 8, ptr %6) #7
  %32 = load i32, ptr %3, align 4
  ret i32 %32
}

; Function Attrs: inlinehint nounwind uwtable
define internal i32 @PACKET_get_quic_length_prefixed(ptr noundef %0, ptr noundef %1) #4 {
  %3 = alloca i32, align 4
  %4 = alloca ptr, align 8
  %5 = alloca ptr, align 8
  %6 = alloca i64, align 8
  %7 = alloca ptr, align 8
  %8 = alloca %struct.PACKET, align 8
  %9 = alloca i32, align 4
  store ptr %0, ptr %4, align 8, !tbaa !33
  store ptr %1, ptr %5, align 8, !tbaa !33
  call void @llvm.lifetime.start.p0(i64 8, ptr %6) #7
  call void @llvm.lifetime.start.p0(i64 8, ptr %7) #7
  call void @llvm.lifetime.start.p0(i64 16, ptr %8) #7
  %10 = load ptr, ptr %4, align 8, !tbaa !33
  call void @llvm.memcpy.p0.p0.i64(ptr align 8 %8, ptr align 8 %10, i64 16, i1 false), !tbaa.struct !40
  %11 = call i32 @PACKET_get_quic_vlint(ptr noundef %8, ptr noundef %6)
  %12 = icmp ne i32 %11, 0
  br i1 %12, label %13, label %20

13:                                               ; preds = %2
  %14 = load i64, ptr %6, align 8, !tbaa !11
  %15 = icmp ugt i64 %14, -1
  br i1 %15, label %20, label %16

16:                                               ; preds = %13
  %17 = load i64, ptr %6, align 8, !tbaa !11
  %18 = call i32 @PACKET_get_bytes(ptr noundef %8, ptr noundef %7, i64 noundef %17)
  %19 = icmp ne i32 %18, 0
  br i1 %19, label %21, label %20

20:                                               ; preds = %16, %13, %2
  store i32 0, ptr %3, align 4
  store i32 1, ptr %9, align 4
  br label %29

21:                                               ; preds = %16
  %22 = load ptr, ptr %4, align 8, !tbaa !33
  call void @llvm.memcpy.p0.p0.i64(ptr align 8 %22, ptr align 8 %8, i64 16, i1 false), !tbaa.struct !40
  %23 = load ptr, ptr %7, align 8, !tbaa !13
  %24 = load ptr, ptr %5, align 8, !tbaa !33
  %25 = getelementptr inbounds nuw %struct.PACKET, ptr %24, i32 0, i32 0
  store ptr %23, ptr %25, align 8, !tbaa !29
  %26 = load i64, ptr %6, align 8, !tbaa !11
  %27 = load ptr, ptr %5, align 8, !tbaa !33
  %28 = getelementptr inbounds nuw %struct.PACKET, ptr %27, i32 0, i32 1
  store i64 %26, ptr %28, align 8, !tbaa !31
  store i32 1, ptr %3, align 4
  store i32 1, ptr %9, align 4
  br label %29

29:                                               ; preds = %21, %20
  call void @llvm.lifetime.end.p0(i64 16, ptr %8) #7
  call void @llvm.lifetime.end.p0(i64 8, ptr %7) #7
  call void @llvm.lifetime.end.p0(i64 8, ptr %6) #7
  %30 = load i32, ptr %3, align 4
  ret i32 %30
}

; Function Attrs: inlinehint nounwind uwtable
define internal i32 @PACKET_buf_init(ptr noundef %0, ptr noundef %1, i64 noundef %2) #4 {
  %4 = alloca i32, align 4
  %5 = alloca ptr, align 8
  %6 = alloca ptr, align 8
  %7 = alloca i64, align 8
  store ptr %0, ptr %5, align 8, !tbaa !33
  store ptr %1, ptr %6, align 8, !tbaa !13
  store i64 %2, ptr %7, align 8, !tbaa !11
  %8 = load i64, ptr %7, align 8, !tbaa !11
  %9 = icmp ugt i64 %8, 9223372036854775807
  br i1 %9, label %10, label %11

10:                                               ; preds = %3
  store i32 0, ptr %4, align 4
  br label %18

11:                                               ; preds = %3
  %12 = load ptr, ptr %6, align 8, !tbaa !13
  %13 = load ptr, ptr %5, align 8, !tbaa !33
  %14 = getelementptr inbounds nuw %struct.PACKET, ptr %13, i32 0, i32 0
  store ptr %12, ptr %14, align 8, !tbaa !29
  %15 = load i64, ptr %7, align 8, !tbaa !11
  %16 = load ptr, ptr %5, align 8, !tbaa !33
  %17 = getelementptr inbounds nuw %struct.PACKET, ptr %16, i32 0, i32 1
  store i64 %15, ptr %17, align 8, !tbaa !31
  store i32 1, ptr %4, align 4
  br label %18

18:                                               ; preds = %11, %10
  %19 = load i32, ptr %4, align 4
  ret i32 %19
}

; Function Attrs: nounwind uwtable
define internal i32 @test_PACKET_get_quic_length_prefixed() #0 {
  %1 = alloca i32, align 4
  %2 = alloca i64, align 8
  %3 = alloca %struct.PACKET, align 8
  %4 = alloca %struct.PACKET, align 8
  %5 = alloca i32, align 4
  call void @llvm.lifetime.start.p0(i64 8, ptr %2) #7
  call void @llvm.lifetime.start.p0(i64 16, ptr %3) #7
  call void @llvm.lifetime.start.p0(i64 16, ptr %4) #7
  call void @llvm.memset.p0.i64(ptr align 8 %4, i8 0, i64 16, i1 false)
  store i64 0, ptr %2, align 8, !tbaa !11
  br label %6

6:                                                ; preds = %93, %0
  %7 = load i64, ptr %2, align 8, !tbaa !11
  %8 = icmp ult i64 %7, 8
  br i1 %8, label %9, label %96

9:                                                ; preds = %6
  call void @llvm.memset.p0.i64(ptr align 8 %3, i8 0, i64 16, i1 false)
  %10 = load i64, ptr %2, align 8, !tbaa !11
  %11 = getelementptr inbounds nuw [8 x %struct.quic_test_case.0], ptr @test_PACKET_get_quic_length_prefixed.cases, i64 0, i64 %10
  %12 = getelementptr inbounds nuw %struct.quic_test_case.0, ptr %11, i32 0, i32 0
  %13 = getelementptr inbounds [16 x i8], ptr %12, i64 0, i64 0
  %14 = load i64, ptr %2, align 8, !tbaa !11
  %15 = getelementptr inbounds nuw [8 x %struct.quic_test_case.0], ptr @test_PACKET_get_quic_length_prefixed.cases, i64 0, i64 %14
  %16 = getelementptr inbounds nuw %struct.quic_test_case.0, ptr %15, i32 0, i32 3
  %17 = load i32, ptr %16, align 8, !tbaa !25
  %18 = icmp ne i32 %17, 0
  br i1 %18, label %19, label %20

19:                                               ; preds = %9
  br label %30

20:                                               ; preds = %9
  %21 = load i64, ptr %2, align 8, !tbaa !11
  %22 = getelementptr inbounds nuw [8 x %struct.quic_test_case.0], ptr @test_PACKET_get_quic_length_prefixed.cases, i64 0, i64 %21
  %23 = getelementptr inbounds nuw %struct.quic_test_case.0, ptr %22, i32 0, i32 1
  %24 = load i64, ptr %23, align 8, !tbaa !27
  %25 = load i64, ptr %2, align 8, !tbaa !11
  %26 = getelementptr inbounds nuw [8 x %struct.quic_test_case.0], ptr @test_PACKET_get_quic_length_prefixed.cases, i64 0, i64 %25
  %27 = getelementptr inbounds nuw %struct.quic_test_case.0, ptr %26, i32 0, i32 2
  %28 = load i64, ptr %27, align 8, !tbaa !28
  %29 = add i64 %24, %28
  br label %30

30:                                               ; preds = %20, %19
  %31 = phi i64 [ 16, %19 ], [ %29, %20 ]
  %32 = call i32 @PACKET_buf_init(ptr noundef %3, ptr noundef %13, i64 noundef %31)
  %33 = icmp ne i32 %32, 0
  %34 = zext i1 %33 to i32
  %35 = call i32 @test_true(ptr noundef @.str.25, i32 noundef 552, ptr noundef @.str.131, i32 noundef %34)
  %36 = icmp ne i32 %35, 0
  br i1 %36, label %38, label %37

37:                                               ; preds = %30
  store i32 0, ptr %1, align 4
  store i32 1, ptr %5, align 4
  br label %97

38:                                               ; preds = %30
  %39 = call i32 @PACKET_get_quic_length_prefixed(ptr noundef %3, ptr noundef %4)
  %40 = load i64, ptr %2, align 8, !tbaa !11
  %41 = getelementptr inbounds nuw [8 x %struct.quic_test_case.0], ptr @test_PACKET_get_quic_length_prefixed.cases, i64 0, i64 %40
  %42 = getelementptr inbounds nuw %struct.quic_test_case.0, ptr %41, i32 0, i32 3
  %43 = load i32, ptr %42, align 8, !tbaa !25
  %44 = icmp ne i32 %43, 0
  %45 = xor i1 %44, true
  %46 = zext i1 %45 to i32
  %47 = call i32 @test_int_eq(ptr noundef @.str.25, i32 noundef 555, ptr noundef @.str.132, ptr noundef @.str.133, i32 noundef %39, i32 noundef %46)
  %48 = icmp ne i32 %47, 0
  br i1 %48, label %50, label %49

49:                                               ; preds = %38
  store i32 0, ptr %1, align 4
  store i32 1, ptr %5, align 4
  br label %97

50:                                               ; preds = %38
  %51 = load i64, ptr %2, align 8, !tbaa !11
  %52 = getelementptr inbounds nuw [8 x %struct.quic_test_case.0], ptr @test_PACKET_get_quic_length_prefixed.cases, i64 0, i64 %51
  %53 = getelementptr inbounds nuw %struct.quic_test_case.0, ptr %52, i32 0, i32 3
  %54 = load i32, ptr %53, align 8, !tbaa !25
  %55 = icmp ne i32 %54, 0
  br i1 %55, label %56, label %67

56:                                               ; preds = %50
  %57 = getelementptr inbounds nuw %struct.PACKET, ptr %3, i32 0, i32 0
  %58 = load ptr, ptr %57, align 8, !tbaa !29
  %59 = load i64, ptr %2, align 8, !tbaa !11
  %60 = getelementptr inbounds nuw [8 x %struct.quic_test_case.0], ptr @test_PACKET_get_quic_length_prefixed.cases, i64 0, i64 %59
  %61 = getelementptr inbounds nuw %struct.quic_test_case.0, ptr %60, i32 0, i32 0
  %62 = getelementptr inbounds [16 x i8], ptr %61, i64 0, i64 0
  %63 = call i32 @test_ptr_eq(ptr noundef @.str.25, i32 noundef 559, ptr noundef @.str.134, ptr noundef @.str.135, ptr noundef %58, ptr noundef %62)
  %64 = icmp ne i32 %63, 0
  br i1 %64, label %66, label %65

65:                                               ; preds = %56
  store i32 0, ptr %1, align 4
  store i32 1, ptr %5, align 4
  br label %97

66:                                               ; preds = %56
  br label %93

67:                                               ; preds = %50
  %68 = getelementptr inbounds nuw %struct.PACKET, ptr %4, i32 0, i32 0
  %69 = load ptr, ptr %68, align 8, !tbaa !29
  %70 = load i64, ptr %2, align 8, !tbaa !11
  %71 = getelementptr inbounds nuw [8 x %struct.quic_test_case.0], ptr @test_PACKET_get_quic_length_prefixed.cases, i64 0, i64 %70
  %72 = getelementptr inbounds nuw %struct.quic_test_case.0, ptr %71, i32 0, i32 0
  %73 = getelementptr inbounds [16 x i8], ptr %72, i64 0, i64 0
  %74 = load i64, ptr %2, align 8, !tbaa !11
  %75 = getelementptr inbounds nuw [8 x %struct.quic_test_case.0], ptr @test_PACKET_get_quic_length_prefixed.cases, i64 0, i64 %74
  %76 = getelementptr inbounds nuw %struct.quic_test_case.0, ptr %75, i32 0, i32 1
  %77 = load i64, ptr %76, align 8, !tbaa !27
  %78 = getelementptr inbounds nuw i8, ptr %73, i64 %77
  %79 = call i32 @test_ptr_eq(ptr noundef @.str.25, i32 noundef 564, ptr noundef @.str.136, ptr noundef @.str.137, ptr noundef %69, ptr noundef %78)
  %80 = icmp ne i32 %79, 0
  br i1 %80, label %82, label %81

81:                                               ; preds = %67
  store i32 0, ptr %1, align 4
  store i32 1, ptr %5, align 4
  br label %97

82:                                               ; preds = %67
  %83 = getelementptr inbounds nuw %struct.PACKET, ptr %4, i32 0, i32 1
  %84 = load i64, ptr %83, align 8, !tbaa !31
  %85 = load i64, ptr %2, align 8, !tbaa !11
  %86 = getelementptr inbounds nuw [8 x %struct.quic_test_case.0], ptr @test_PACKET_get_quic_length_prefixed.cases, i64 0, i64 %85
  %87 = getelementptr inbounds nuw %struct.quic_test_case.0, ptr %86, i32 0, i32 2
  %88 = load i64, ptr %87, align 8, !tbaa !28
  %89 = call i32 @test_size_t_eq(ptr noundef @.str.25, i32 noundef 567, ptr noundef @.str.138, ptr noundef @.str.139, i64 noundef %84, i64 noundef %88)
  %90 = icmp ne i32 %89, 0
  br i1 %90, label %92, label %91

91:                                               ; preds = %82
  store i32 0, ptr %1, align 4
  store i32 1, ptr %5, align 4
  br label %97

92:                                               ; preds = %82
  br label %93

93:                                               ; preds = %92, %66
  %94 = load i64, ptr %2, align 8, !tbaa !11
  %95 = add i64 %94, 1
  store i64 %95, ptr %2, align 8, !tbaa !11
  br label %6, !llvm.loop !32

96:                                               ; preds = %6
  store i32 1, ptr %1, align 4
  store i32 1, ptr %5, align 4
  br label %97

97:                                               ; preds = %96, %91, %81, %65, %49, %37
  call void @llvm.lifetime.end.p0(i64 16, ptr %4) #7
  call void @llvm.lifetime.end.p0(i64 16, ptr %3) #7
  call void @llvm.lifetime.end.p0(i64 8, ptr %2) #7
  %98 = load i32, ptr %1, align 4
  ret i32 %98
}