; Function Attrs: nounwind uwtable
define internal range(i32 0, 2) i32 @test_PACKET_get_quic_length_prefixed() #0 {
  br label %1

1:                                                ; preds = %0, %38
  %.054 = phi i64 [ 0, %0 ], [ %39, %38 ]
  %.sroa.5.053 = phi i64 [ 0, %0 ], [ %.sroa.5.14147, %38 ]
  %.sroa.0.052 = phi ptr [ null, %0 ], [ %.sroa.0.14049, %38 ]
  %2 = getelementptr inbounds nuw [8 x %struct.quic_test_case.0], ptr @test_PACKET_get_quic_length_prefixed.cases, i64 0, i64 %.054
  %3 = getelementptr inbounds nuw i8, ptr %2, i64 32
  %4 = load i32, ptr %3, align 8, !tbaa !18
  %.not = icmp eq i32 %4, 0
  br i1 %.not, label %PACKET_buf_init.exit, label %PACKET_buf_init.exit.thread

PACKET_buf_init.exit:                             ; preds = %1
  %5 = getelementptr inbounds nuw i8, ptr %2, i64 24
  %6 = load i64, ptr %5, align 8, !tbaa !21
  %7 = add i64 %6, 1
  %8 = icmp sgt i64 %7, -1
  %.0.i = zext i1 %8 to i32
  %9 = tail call i32 @test_true(ptr noundef nonnull @.str.25, i32 noundef 552, ptr noundef nonnull @.str.131, i32 noundef %.0.i) #6
  %.not14 = icmp eq i32 %9, 0
  br i1 %.not14, label %40, label %11

PACKET_buf_init.exit.thread:                      ; preds = %1
  %10 = tail call i32 @test_true(ptr noundef nonnull @.str.25, i32 noundef 552, ptr noundef nonnull @.str.131, i32 noundef 1) #6
  %.not1426 = icmp eq i32 %10, 0
  br i1 %.not1426, label %40, label %.thread29

11:                                               ; preds = %PACKET_buf_init.exit
  %.sroa.022.1 = select i1 %8, ptr %2, ptr null
  %12 = icmp ugt i64 %6, 9223372036854775806
  br i1 %12, label %PACKET_get_quic_length_prefixed.exit.thread, label %.thread29

.thread29:                                        ; preds = %PACKET_buf_init.exit.thread, %11
  %.sroa.022.12733 = phi ptr [ %.sroa.022.1, %11 ], [ %2, %PACKET_buf_init.exit.thread ]
  %.sroa.7.12832 = phi i64 [ %7, %11 ], [ 16, %PACKET_buf_init.exit.thread ]
  %13 = load i8, ptr %.sroa.022.12733, align 1, !tbaa !4
  %14 = lshr i8 %13, 6
  %15 = zext nneg i8 %14 to i32
  %16 = shl nuw nsw i32 1, %15
  %17 = zext nneg i32 %16 to i64
  %18 = icmp samesign ult i64 %.sroa.7.12832, %17
  br i1 %18, label %PACKET_get_quic_length_prefixed.exit, label %19

19:                                               ; preds = %.thread29
  %20 = tail call i64 @ossl_quic_vlint_decode_unchecked(ptr noundef nonnull %.sroa.022.12733) #6
  %21 = sub nuw nsw i64 %.sroa.7.12832, %17
  %22 = icmp ult i64 %21, %20
  br i1 %22, label %PACKET_get_quic_length_prefixed.exit, label %23

23:                                               ; preds = %19
  %24 = getelementptr inbounds nuw i8, ptr %.sroa.022.12733, i64 %17
  %25 = getelementptr inbounds nuw i8, ptr %24, i64 %20
  br label %PACKET_get_quic_length_prefixed.exit

PACKET_get_quic_length_prefixed.exit:             ; preds = %.thread29, %19, %23
  %.sroa.022.2 = phi ptr [ %.sroa.022.12733, %.thread29 ], [ %.sroa.022.12733, %19 ], [ %25, %23 ]
  %.sroa.0.1 = phi ptr [ %.sroa.0.052, %.thread29 ], [ %.sroa.0.052, %19 ], [ %24, %23 ]
  %.sroa.5.1 = phi i64 [ %.sroa.5.053, %.thread29 ], [ %.sroa.5.053, %19 ], [ %20, %23 ]
  %.0.i21 = phi i32 [ 0, %.thread29 ], [ 0, %19 ], [ 1, %23 ]
  %26 = zext i1 %.not to i32
  %27 = tail call i32 @test_int_eq(ptr noundef nonnull @.str.25, i32 noundef 555, ptr noundef nonnull @.str.132, ptr noundef nonnull @.str.133, i32 noundef %.0.i21, i32 noundef %26) #6
  %.not16 = icmp eq i32 %27, 0
  br i1 %.not16, label %40, label %29

PACKET_get_quic_length_prefixed.exit.thread:      ; preds = %11
  %28 = tail call i32 @test_int_eq(ptr noundef nonnull @.str.25, i32 noundef 555, ptr noundef nonnull @.str.132, ptr noundef nonnull @.str.133, i32 noundef 0, i32 noundef 1) #6
  %.not1638 = icmp eq i32 %28, 0
  br i1 %.not1638, label %40, label %.thread42

29:                                               ; preds = %PACKET_get_quic_length_prefixed.exit
  br i1 %.not, label %.thread42, label %30

30:                                               ; preds = %29
  %31 = tail call i32 @test_ptr_eq(ptr noundef nonnull @.str.25, i32 noundef 559, ptr noundef nonnull @.str.134, ptr noundef nonnull @.str.135, ptr noundef nonnull %.sroa.022.2, ptr noundef nonnull %2) #6
  %.not20 = icmp eq i32 %31, 0
  br i1 %.not20, label %40, label %38

.thread42:                                        ; preds = %PACKET_get_quic_length_prefixed.exit.thread, %29
  %.sroa.0.14048 = phi ptr [ %.sroa.0.1, %29 ], [ %.sroa.0.052, %PACKET_get_quic_length_prefixed.exit.thread ]
  %.sroa.5.14146 = phi i64 [ %.sroa.5.1, %29 ], [ %.sroa.5.053, %PACKET_get_quic_length_prefixed.exit.thread ]
  %32 = getelementptr inbounds nuw i8, ptr %2, i64 1
  %33 = tail call i32 @test_ptr_eq(ptr noundef nonnull @.str.25, i32 noundef 564, ptr noundef nonnull @.str.136, ptr noundef nonnull @.str.137, ptr noundef %.sroa.0.14048, ptr noundef nonnull %32) #6
  %.not18 = icmp eq i32 %33, 0
  br i1 %.not18, label %40, label %34

34:                                               ; preds = %.thread42
  %35 = getelementptr inbounds nuw i8, ptr %2, i64 24
  %36 = load i64, ptr %35, align 8, !tbaa !21
  %37 = tail call i32 @test_size_t_eq(ptr noundef nonnull @.str.25, i32 noundef 567, ptr noundef nonnull @.str.138, ptr noundef nonnull @.str.139, i64 noundef %.sroa.5.14146, i64 noundef %36) #6
  %.not19 = icmp eq i32 %37, 0
  br i1 %.not19, label %40, label %38

38:                                               ; preds = %34, %30
  %.sroa.0.14049 = phi ptr [ %.sroa.0.14048, %34 ], [ %.sroa.0.1, %30 ]
  %.sroa.5.14147 = phi i64 [ %.sroa.5.14146, %34 ], [ %.sroa.5.1, %30 ]
  %39 = add nuw nsw i64 %.054, 1
  %exitcond.not = icmp eq i64 %39, 8
  br i1 %exitcond.not, label %40, label %1, !llvm.loop !22

40:                                               ; preds = %PACKET_get_quic_length_prefixed.exit.thread, %PACKET_buf_init.exit.thread, %38, %34, %.thread42, %30, %PACKET_get_quic_length_prefixed.exit, %PACKET_buf_init.exit
  %.013 = phi i32 [ 0, %PACKET_buf_init.exit ], [ 0, %PACKET_get_quic_length_prefixed.exit ], [ 0, %30 ], [ 0, %.thread42 ], [ 0, %34 ], [ 1, %38 ], [ 0, %PACKET_buf_init.exit.thread ], [ 0, %PACKET_get_quic_length_prefixed.exit.thread ]
  ret i32 %.013
}